target datalayout = "e-m:e-p270:32:32-p271:32:32-p272:64:64-i64:64-i128:128-f80:128-n8:16:32:64-S128"
target triple = "x86_64-pc-linux-gnu"

; Function Attrs: mustprogress uwtable
define void @_ZN4LIEF5MachO4Hash5visitERKNS0_14FilesetCommandE(ptr noundef nonnull align 8 dereferenceable(64) %0, ptr noundef nonnull align 8 dereferenceable(112) %1) unnamed_addr #3 align 2 {
  %3 = alloca ptr, align 8
  %4 = alloca ptr, align 8
  store ptr %0, ptr %3, align 8
  store ptr %1, ptr %4, align 8
  %5 = load ptr, ptr %3, align 8
  %6 = load ptr, ptr %4, align 8
  %7 = call noundef nonnull align 8 dereferenceable(32) ptr @_ZNK4LIEF5MachO14FilesetCommand4nameB5cxx11Ev(ptr noundef nonnull align 8 dereferenceable(112) %6)
  %8 = load ptr, ptr %5, align 8
  %9 = getelementptr inbounds ptr, ptr %8, i64 167
  %10 = load ptr, ptr %9, align 8
  %11 = call noundef nonnull align 8 dereferenceable(64) ptr %10(ptr noundef nonnull align 8 dereferenceable(64) %5, ptr noundef nonnull align 8 dereferenceable(32) %7)
  %12 = load ptr, ptr %4, align 8
  %13 = call noundef i64 @_ZNK4LIEF5MachO14FilesetCommand15virtual_addressEv(ptr noundef nonnull align 8 dereferenceable(112) %12)
  %14 = load ptr, ptr %5, align 8
  %15 = getelementptr inbounds ptr, ptr %14, i64 166
  %16 = load ptr, ptr %15, align 8
  %17 = call noundef nonnull align 8 dereferenceable(64) ptr %16(ptr noundef nonnull align 8 dereferenceable(64) %5, i64 noundef %13)
  %18 = load ptr, ptr %4, align 8
  %19 = call noundef i64 @_ZNK4LIEF5MachO14FilesetCommand11file_offsetEv(ptr noundef nonnull align 8 dereferenceable(112) %18)
  %20 = load ptr, ptr %5, align 8
  %21 = getelementptr inbounds ptr, ptr %20, i64 166
  %22 = load ptr, ptr %21, align 8
  %23 = call noundef nonnull align 8 dereferenceable(64) ptr %22(ptr noundef nonnull align 8 dereferenceable(64) %5, i64 noundef %19)
  ret void
}